; Function Attrs: mustprogress nounwind uwtable
define internal fastcc void @_ZN6hermes12_GLOBAL__N_15GenJS5visitEPNS_6ESTree20LabeledStatementNodeE(ptr noundef nonnull align 8 captures(none) dereferenceable(16) %this, ptr noundef readonly captures(none) %node) unnamed_addr #0 align 2 {
entry:
  %_label = getelementptr inbounds nuw i8, ptr %node, i64 56
  %0 = load ptr, ptr %_label, align 8
  tail call fastcc void @_ZN6hermes6ESTree24RecursiveVisitorDispatchINS_12_GLOBAL__N_15GenJSELb1EE5visitERS3_PNS0_4NodeES7_(ptr noundef nonnull align 8 dereferenceable(16) %this, ptr noundef %0)
  %1 = load ptr, ptr %this, align 8
  %OutBufCur.i = getelementptr inbounds nuw i8, ptr %1, i64 24
  %2 = load ptr, ptr %OutBufCur.i, align 8
  %OutBufEnd.i = getelementptr inbounds nuw i8, ptr %1, i64 16
  %3 = load ptr, ptr %OutBufEnd.i, align 8
  %cmp.not.i = icmp ult ptr %2, %3
  br i1 %cmp.not.i, label %if.end.i, label %if.then.i

if.then.i:                                        ; preds = %entry
  %call.i4 = tail call noundef nonnull align 8 dereferenceable(36) ptr @_ZN4llvh11raw_ostream5writeEh(ptr noundef nonnull align 8 dereferenceable(36) %1, i8 noundef zeroext 58) #12
  br label %_ZN4llvh11raw_ostreamlsEc.exit

if.end.i:                                         ; preds = %entry
  %incdec.ptr.i = getelementptr inbounds nuw i8, ptr %2, i64 1
  store ptr %incdec.ptr.i, ptr %OutBufCur.i, align 8
  store i8 58, ptr %2, align 1
  br label %_ZN4llvh11raw_ostreamlsEc.exit

_ZN4llvh11raw_ostreamlsEc.exit:                   ; preds = %if.then.i, %if.end.i
  %pretty_.i = getelementptr inbounds nuw i8, ptr %this, i64 8
  %4 = load i8, ptr %pretty_.i, align 8
  %tobool.i = trunc i8 %4 to i1
  br i1 %tobool.i, label %if.then.i6, label %_ZN6hermes12_GLOBAL__N_15GenJS7newlineEv.exit

if.then.i6:                                       ; preds = %_ZN4llvh11raw_ostreamlsEc.exit
  %5 = load ptr, ptr %this, align 8
  %call.i7 = tail call noundef nonnull align 8 dereferenceable(36) ptr @_ZN4llvh11raw_ostream5writeEh(ptr noundef nonnull align 8 dereferenceable(36) %5, i8 noundef zeroext 10) #12
  %indent_.i = getelementptr inbounds nuw i8, ptr %this, i64 12
  %6 = load i32, ptr %indent_.i, align 4
  %call2.i = tail call noundef nonnull align 8 dereferenceable(36) ptr @_ZN4llvh11raw_ostream6indentEj(ptr noundef nonnull align 8 dereferenceable(36) %call.i7, i32 noundef %6) #12
  br label %_ZN6hermes12_GLOBAL__N_15GenJS7newlineEv.exit

_ZN6hermes12_GLOBAL__N_15GenJS7newlineEv.exit:    ; preds = %_ZN4llvh11raw_ostreamlsEc.exit, %if.then.i6
  %_body = getelementptr inbounds nuw i8, ptr %node, i64 64
  %7 = load ptr, ptr %_body, align 8
  tail call fastcc void @_ZN6hermes6ESTree24RecursiveVisitorDispatchINS_12_GLOBAL__N_15GenJSELb1EE5visitERS3_PNS0_4NodeES7_(ptr noundef nonnull align 8 dereferenceable(16) %this, ptr noundef %7)
  ret void
}